; ModuleID = 'source-C-CXX/37/206.cpp'
source_filename = "source-C-CXX/37/206.cpp"
target datalayout = "e-m:e-p270:32:32-p271:32:32-p272:64:64-i64:64-f80:128-n8:16:32:64-S128"
target triple = "x86_64-pc-linux-gnu"

%"class.std::ios_base::Init" = type { i8 }
%"class.std::basic_istream" = type { i32 (...)**, i64, %"class.std::basic_ios" }
%"class.std::basic_ios" = type { %"class.std::ios_base", %"class.std::basic_ostream"*, i8, i8, %"class.std::basic_streambuf"*, %"class.std::ctype"*, %"class.std::num_put"*, %"class.std::num_get"* }
%"class.std::ios_base" = type { i32 (...)**, i64, i64, i32, i32, i32, %"struct.std::ios_base::_Callback_list"*, %"struct.std::ios_base::_Words", [8 x %"struct.std::ios_base::_Words"], i32, %"struct.std::ios_base::_Words"*, %"class.std::locale" }
%"struct.std::ios_base::_Callback_list" = type { %"struct.std::ios_base::_Callback_list"*, void (i32, %"class.std::ios_base"*, i32)*, i32, i32 }
%"struct.std::ios_base::_Words" = type { i8*, i64 }
%"class.std::locale" = type { %"class.std::locale::_Impl"* }
%"class.std::locale::_Impl" = type { i32, %"class.std::locale::facet"**, i64, %"class.std::locale::facet"**, i8** }
%"class.std::locale::facet" = type <{ i32 (...)**, i32, [4 x i8] }>
%"class.std::basic_ostream" = type { i32 (...)**, %"class.std::basic_ios" }
%"class.std::basic_streambuf" = type { i32 (...)**, i8*, i8*, i8*, i8*, i8*, i8*, %"class.std::locale" }
%"class.std::ctype" = type <{ %"class.std::locale::facet.base", [4 x i8], %struct.__locale_struct*, i8, [7 x i8], i32*, i32*, i16*, i8, [256 x i8], [256 x i8], i8, [6 x i8] }>
%"class.std::locale::facet.base" = type <{ i32 (...)**, i32 }>
%struct.__locale_struct = type { [13 x %struct.__locale_data*], i16*, i32*, i32*, [13 x i8*] }
%struct.__locale_data = type opaque
%"class.std::num_put" = type { %"class.std::locale::facet.base", [4 x i8] }
%"class.std::num_get" = type { %"class.std::locale::facet.base", [4 x i8] }

@_ZStL8__ioinit = internal global %"class.std::ios_base::Init" zeroinitializer, align 1
@__dso_handle = external hidden global i8
@_ZSt3cin = external global %"class.std::basic_istream", align 8
@.str = private unnamed_addr constant [6 x i8] c"\0A%.5f\00", align 1
@llvm.global_ctors = appending global [1 x { i32, void ()*, i8* }] [{ i32, void ()*, i8* } { i32 65535, void ()* @_GLOBAL__sub_I_206.cpp, i8* null }]

declare void @_ZNSt8ios_base4InitC1Ev(%"class.std::ios_base::Init"* nonnull align 1 dereferenceable(1)) unnamed_addr #0

; Function Attrs: nounwind
declare void @_ZNSt8ios_base4InitD1Ev(%"class.std::ios_base::Init"* nonnull align 1 dereferenceable(1)) unnamed_addr #1

; Function Attrs: nofree nounwind
declare i32 @__cxa_atexit(void (i8*)*, i8*, i8*) local_unnamed_addr #2

; Function Attrs: mustprogress norecurse sspstrong uwtable
define dso_local i32 @main() local_unnamed_addr #3 {
  %1 = alloca i32, align 4
  %2 = alloca i32, align 4
  %3 = alloca [1001 x float], align 16
  %4 = bitcast i32* %1 to i8*
  call void @llvm.lifetime.start.p0i8(i64 4, i8* nonnull %4) #8
  %5 = bitcast i32* %2 to i8*
  call void @llvm.lifetime.start.p0i8(i64 4, i8* nonnull %5) #8
  %6 = bitcast [1001 x float]* %3 to i8*
  call void @llvm.lifetime.start.p0i8(i64 4004, i8* nonnull %6) #8
  %7 = call nonnull align 8 dereferenceable(16) %"class.std::basic_istream"* @_ZNSirsERi(%"class.std::basic_istream"* nonnull align 8 dereferenceable(16) @_ZSt3cin, i32* nonnull align 4 dereferenceable(4) %1)
  %8 = load i32, i32* %1, align 4, !tbaa !5
  %9 = icmp slt i32 %8, 1
  br i1 %9, label %101, label %10

10:                                               ; preds = %0, %92
  %11 = phi i32 [ %98, %92 ], [ 1, %0 ]
  %12 = call nonnull align 8 dereferenceable(16) %"class.std::basic_istream"* @_ZNSirsERi(%"class.std::basic_istream"* nonnull align 8 dereferenceable(16) @_ZSt3cin, i32* nonnull align 4 dereferenceable(4) %2)
  %13 = load i32, i32* %2, align 4, !tbaa !5
  %14 = icmp sgt i32 %13, 0
  br i1 %14, label %17, label %15

15:                                               ; preds = %10
  %16 = sitofp i32 %13 to double
  br label %92

17:                                               ; preds = %10, %17
  %18 = phi i64 [ %25, %17 ], [ 0, %10 ]
  %19 = phi double [ %24, %17 ], [ 0.000000e+00, %10 ]
  %20 = getelementptr inbounds [1001 x float], [1001 x float]* %3, i64 0, i64 %18
  %21 = call nonnull align 8 dereferenceable(16) %"class.std::basic_istream"* @_ZNSi10_M_extractIfEERSiRT_(%"class.std::basic_istream"* nonnull align 8 dereferenceable(16) @_ZSt3cin, float* nonnull align 4 dereferenceable(4) %20)
  %22 = load float, float* %20, align 4, !tbaa !9
  %23 = fpext float %22 to double
  %24 = fadd double %19, %23
  %25 = add nuw nsw i64 %18, 1
  %26 = load i32, i32* %2, align 4, !tbaa !5
  %27 = sext i32 %26 to i64
  %28 = icmp slt i64 %25, %27
  br i1 %28, label %17, label %29, !llvm.loop !11

29:                                               ; preds = %17
  %30 = sitofp i32 %26 to double
  %31 = fdiv double %24, %30
  %32 = icmp sgt i32 %26, 0
  br i1 %32, label %33, label %92

33:                                               ; preds = %29
  %34 = zext i32 %26 to i64
  %35 = add nsw i64 %34, -1
  %36 = and i64 %34, 3
  %37 = icmp ult i64 %35, 3
  br i1 %37, label %74, label %38

38:                                               ; preds = %33
  %39 = and i64 %34, 4294967292
  br label %40

40:                                               ; preds = %40, %38
  %41 = phi i64 [ 0, %38 ], [ %71, %40 ]
  %42 = phi double [ 0.000000e+00, %38 ], [ %70, %40 ]
  %43 = phi i64 [ %39, %38 ], [ %72, %40 ]
  %44 = getelementptr inbounds [1001 x float], [1001 x float]* %3, i64 0, i64 %41
  %45 = load float, float* %44, align 16, !tbaa !9
  %46 = fpext float %45 to double
  %47 = fsub double %31, %46
  %48 = fmul double %47, %47
  %49 = fadd double %42, %48
  %50 = or i64 %41, 1
  %51 = getelementptr inbounds [1001 x float], [1001 x float]* %3, i64 0, i64 %50
  %52 = load float, float* %51, align 4, !tbaa !9
  %53 = fpext float %52 to double
  %54 = fsub double %31, %53
  %55 = fmul double %54, %54
  %56 = fadd double %49, %55
  %57 = or i64 %41, 2
  %58 = getelementptr inbounds [1001 x float], [1001 x float]* %3, i64 0, i64 %57
  %59 = load float, float* %58, align 8, !tbaa !9
  %60 = fpext float %59 to double
  %61 = fsub double %31, %60
  %62 = fmul double %61, %61
  %63 = fadd double %56, %62
  %64 = or i64 %41, 3
  %65 = getelementptr inbounds [1001 x float], [1001 x float]* %3, i64 0, i64 %64
  %66 = load float, float* %65, align 4, !tbaa !9
  %67 = fpext float %66 to double
  %68 = fsub double %31, %67
  %69 = fmul double %68, %68
  %70 = fadd double %63, %69
  %71 = add nuw nsw i64 %41, 4
  %72 = add i64 %43, -4
  %73 = icmp eq i64 %72, 0
  br i1 %73, label %74, label %40, !llvm.loop !13

74:                                               ; preds = %40, %33
  %75 = phi double [ undef, %33 ], [ %70, %40 ]
  %76 = phi i64 [ 0, %33 ], [ %71, %40 ]
  %77 = phi double [ 0.000000e+00, %33 ], [ %70, %40 ]
  %78 = icmp eq i64 %36, 0
  br i1 %78, label %92, label %79

79:                                               ; preds = %74, %79
  %80 = phi i64 [ %89, %79 ], [ %76, %74 ]
  %81 = phi double [ %88, %79 ], [ %77, %74 ]
  %82 = phi i64 [ %90, %79 ], [ %36, %74 ]
  %83 = getelementptr inbounds [1001 x float], [1001 x float]* %3, i64 0, i64 %80
  %84 = load float, float* %83, align 4, !tbaa !9
  %85 = fpext float %84 to double
  %86 = fsub double %31, %85
  %87 = fmul double %86, %86
  %88 = fadd double %81, %87
  %89 = add nuw nsw i64 %80, 1
  %90 = add i64 %82, -1
  %91 = icmp eq i64 %90, 0
  br i1 %91, label %92, label %79, !llvm.loop !14

92:                                               ; preds = %74, %79, %15, %29
  %93 = phi double [ %30, %29 ], [ %16, %15 ], [ %30, %79 ], [ %30, %74 ]
  %94 = phi double [ 0.000000e+00, %29 ], [ 0.000000e+00, %15 ], [ %75, %74 ], [ %88, %79 ]
  %95 = fdiv double %94, %93
  %96 = call double @sqrt(double %95) #8
  %97 = call i32 (i8*, ...) @printf(i8* nonnull dereferenceable(1) getelementptr inbounds ([6 x i8], [6 x i8]* @.str, i64 0, i64 0), double %96)
  %98 = add nuw nsw i32 %11, 1
  %99 = load i32, i32* %1, align 4, !tbaa !5
  %100 = icmp slt i32 %11, %99
  br i1 %100, label %10, label %101, !llvm.loop !16

101:                                              ; preds = %92, %0
  call void @llvm.lifetime.end.p0i8(i64 4004, i8* nonnull %6) #8
  call void @llvm.lifetime.end.p0i8(i64 4, i8* nonnull %5) #8
  call void @llvm.lifetime.end.p0i8(i64 4, i8* nonnull %4) #8
  ret i32 0
}

; Function Attrs: argmemonly mustprogress nofree nosync nounwind willreturn
declare void @llvm.lifetime.start.p0i8(i64 immarg, i8* nocapture) #4

declare nonnull align 8 dereferenceable(16) %"class.std::basic_istream"* @_ZNSirsERi(%"class.std::basic_istream"* nonnull align 8 dereferenceable(16), i32* nonnull align 4 dereferenceable(4)) local_unnamed_addr #0

; Function Attrs: mustprogress nofree nounwind willreturn
declare double @sqrt(double) local_unnamed_addr #5

; Function Attrs: nofree nounwind
declare noundef i32 @printf(i8* nocapture noundef readonly, ...) local_unnamed_addr #6

; Function Attrs: argmemonly mustprogress nofree nosync nounwind willreturn
declare void @llvm.lifetime.end.p0i8(i64 immarg, i8* nocapture) #4

declare nonnull align 8 dereferenceable(16) %"class.std::basic_istream"* @_ZNSi10_M_extractIfEERSiRT_(%"class.std::basic_istream"* nonnull align 8 dereferenceable(16), float* nonnull align 4 dereferenceable(4)) local_unnamed_addr #0

; Function Attrs: sspstrong uwtable
define internal void @_GLOBAL__sub_I_206.cpp() #7 section ".text.startup" {
  tail call void @_ZNSt8ios_base4InitC1Ev(%"class.std::ios_base::Init"* nonnull align 1 dereferenceable(1) @_ZStL8__ioinit)
  %1 = tail call i32 @__cxa_atexit(void (i8*)* bitcast (void (%"class.std::ios_base::Init"*)* @_ZNSt8ios_base4InitD1Ev to void (i8*)*), i8* getelementptr inbounds (%"class.std::ios_base::Init", %"class.std::ios_base::Init"* @_ZStL8__ioinit, i64 0, i32 0), i8* nonnull @__dso_handle) #8
  ret void
}


!llvm.module.flags = !{!0, !1, !2, !3}
!llvm.ident = !{!4}

!0 = !{i32 1, !"wchar_size", i32 4}
!1 = !{i32 7, !"PIC Level", i32 2}
!2 = !{i32 7, !"PIE Level", i32 2}
!3 = !{i32 7, !"uwtable", i32 1}
!4 = !{!"clang version 13.0.0"}
!5 = !{!6, !6, i64 0}
!6 = !{!"int", !7, i64 0}
!7 = !{!"omnipotent char", !8, i64 0}
!8 = !{!"Simple C++ TBAA"}
!9 = !{!10, !10, i64 0}
!10 = !{!"float", !7, i64 0}
!11 = distinct !{!11, !12}
!12 = !{!"llvm.loop.mustprogress"}
!13 = distinct !{!13, !12}
!14 = distinct !{!14, !15}
!15 = !{!"llvm.loop.unroll.disable"}
!16 = distinct !{!16, !12}
